; Function Attrs: mustprogress uwtable
define internal fastcc void @"_ZZN2cv4gapi3wip11async_applyERNS_12GComputationEOSt8functionIFvNSt15__exception_ptr13exception_ptrEEEOSt6vectorINS_7GRunArgESaISB_EEOSA_INS_4util7variantIJPNS_4UMatEPNS_3MatEPNS_4RMatEPNS_7Scalar_IdEEPNS_10MediaFrameENS_6detail9VectorRefENSS_9OpaqueRefEEEESaISV_EEOSA_INS_11GCompileArgESaISZ_EERNS1_13GAsyncContextEEN3$_0C2ERKS15_"(ptr noundef nonnull align 8 dereferenceable(128) %0, ptr noundef nonnull align 8 dereferenceable(128) %1) unnamed_addr #2 align 2 personality ptr @__gxx_personality_v0 {
  %3 = load ptr, ptr %1, align 8
  store ptr %3, ptr %0, align 8
  %4 = getelementptr inbounds i8, ptr %0, i64 8
  %5 = getelementptr inbounds i8, ptr %1, i64 8
  %6 = load ptr, ptr %5, align 8
  store ptr %6, ptr %4, align 8
  %7 = getelementptr inbounds i8, ptr %0, i64 16
  %8 = getelementptr inbounds i8, ptr %1, i64 16
  %9 = load ptr, ptr %8, align 8
  store ptr %9, ptr %7, align 8
  %.not.i.i.i.i = icmp eq ptr %9, null
  br i1 %.not.i.i.i.i, label %_ZN2cv12GComputationC2ERKS0_.exit, label %10

10:                                               ; preds = %2
  %11 = getelementptr inbounds i8, ptr %9, i64 8
  %12 = load i8, ptr @__libc_single_threaded, align 1
  %.not.i.i.i.i.i = icmp eq i8 %12, 0
  br i1 %.not.i.i.i.i.i, label %16, label %13

13:                                               ; preds = %10
  %14 = load i32, ptr %11, align 4
  %15 = add nsw i32 %14, 1
  store i32 %15, ptr %11, align 4
  br label %_ZN2cv12GComputationC2ERKS0_.exit

16:                                               ; preds = %10
  %17 = atomicrmw volatile add ptr %11, i32 1 acq_rel, align 4
  br label %_ZN2cv12GComputationC2ERKS0_.exit

_ZN2cv12GComputationC2ERKS0_.exit:                ; preds = %2, %13, %16
  %18 = getelementptr inbounds i8, ptr %0, i64 24
  %19 = getelementptr inbounds i8, ptr %1, i64 24
  invoke void @_ZNSt6vectorIN2cv7GRunArgESaIS1_EEC2ERKS3_(ptr noundef nonnull align 8 dereferenceable(24) %18, ptr noundef nonnull align 8 dereferenceable(24) %19)
          to label %20 unwind label %47

20:                                               ; preds = %_ZN2cv12GComputationC2ERKS0_.exit
  %21 = getelementptr inbounds i8, ptr %0, i64 48
  %22 = getelementptr inbounds i8, ptr %1, i64 48
  invoke void @_ZNSt6vectorIN2cv4util7variantIJPNS0_4UMatEPNS0_3MatEPNS0_4RMatEPNS0_7Scalar_IdEEPNS0_10MediaFrameENS0_6detail9VectorRefENSE_9OpaqueRefEEEESaISH_EEC2ERKSJ_(ptr noundef nonnull align 8 dereferenceable(24) %21, ptr noundef nonnull align 8 dereferenceable(24) %22)
          to label %23 unwind label %49

23:                                               ; preds = %20
  %24 = getelementptr inbounds i8, ptr %0, i64 72
  %25 = getelementptr inbounds i8, ptr %1, i64 72
  invoke void @_ZNSt6vectorIN2cv11GCompileArgESaIS1_EEC2ERKS3_(ptr noundef nonnull align 8 dereferenceable(24) %24, ptr noundef nonnull align 8 dereferenceable(24) %25)
          to label %26 unwind label %51

26:                                               ; preds = %23
  %27 = getelementptr inbounds i8, ptr %0, i64 96
  %28 = getelementptr inbounds i8, ptr %0, i64 112
  %29 = getelementptr inbounds i8, ptr %0, i64 120
  %30 = getelementptr inbounds i8, ptr %1, i64 112
  tail call void @llvm.memset.p0.i64(ptr noundef nonnull align 8 dereferenceable(32) %27, i8 0, i64 32, i1 false)
  %31 = load ptr, ptr %30, align 8
  %.not.i.i.not.i = icmp eq ptr %31, null
  br i1 %.not.i.i.not.i, label %_ZNSt8functionIFvNSt15__exception_ptr13exception_ptrEEEC2ERKS3_.exit, label %32

32:                                               ; preds = %26
  %33 = getelementptr inbounds i8, ptr %1, i64 96
  %34 = invoke noundef zeroext i1 %31(ptr noundef nonnull align 8 dereferenceable(16) %27, ptr noundef nonnull align 8 dereferenceable(16) %33, i32 noundef 2)
          to label %35 unwind label %39

35:                                               ; preds = %32
  %36 = getelementptr inbounds i8, ptr %1, i64 120
  %37 = load ptr, ptr %36, align 8
  store ptr %37, ptr %29, align 8
  %38 = load ptr, ptr %30, align 8
  store ptr %38, ptr %28, align 8
  br label %_ZNSt8functionIFvNSt15__exception_ptr13exception_ptrEEEC2ERKS3_.exit

39:                                               ; preds = %32
  %40 = landingpad { ptr, i32 }
          cleanup
  %41 = load ptr, ptr %28, align 8
  %.not.i.i = icmp eq ptr %41, null
  br i1 %.not.i.i, label %.body, label %42

42:                                               ; preds = %39
  %43 = invoke noundef zeroext i1 %41(ptr noundef nonnull align 8 dereferenceable(16) %27, ptr noundef nonnull align 8 dereferenceable(16) %27, i32 noundef 3)
          to label %.body unwind label %44

44:                                               ; preds = %42
  %45 = landingpad { ptr, i32 }
          catch ptr null
  %46 = extractvalue { ptr, i32 } %45, 0
  tail call void @__clang_call_terminate(ptr %46) #19
  unreachable

_ZNSt8functionIFvNSt15__exception_ptr13exception_ptrEEEC2ERKS3_.exit: ; preds = %35, %26
  ret void

47:                                               ; preds = %_ZN2cv12GComputationC2ERKS0_.exit
  %48 = landingpad { ptr, i32 }
          cleanup
  br label %55

49:                                               ; preds = %20
  %50 = landingpad { ptr, i32 }
          cleanup
  br label %54

51:                                               ; preds = %23
  %52 = landingpad { ptr, i32 }
          cleanup
  br label %53

.body:                                            ; preds = %39, %42
  tail call void @_ZNSt6vectorIN2cv11GCompileArgESaIS1_EED2Ev(ptr noundef nonnull align 8 dereferenceable(24) %24) #20
  br label %53

53:                                               ; preds = %.body, %51
  %.pn = phi { ptr, i32 } [ %40, %.body ], [ %52, %51 ]
  tail call void @_ZNSt6vectorIN2cv4util7variantIJPNS0_4UMatEPNS0_3MatEPNS0_4RMatEPNS0_7Scalar_IdEEPNS0_10MediaFrameENS0_6detail9VectorRefENSE_9OpaqueRefEEEESaISH_EED2Ev(ptr noundef nonnull align 8 dereferenceable(24) %21) #20
  br label %54

54:                                               ; preds = %53, %49
  %.pn.pn = phi { ptr, i32 } [ %.pn, %53 ], [ %50, %49 ]
  tail call void @_ZNSt6vectorIN2cv7GRunArgESaIS1_EED2Ev(ptr noundef nonnull align 8 dereferenceable(24) %18) #20
  br label %55

55:                                               ; preds = %54, %47
  %.pn.pn.pn = phi { ptr, i32 } [ %.pn.pn, %54 ], [ %48, %47 ]
  tail call void @_ZN2cv12GComputationD2Ev(ptr noundef nonnull align 8 dereferenceable(16) %4) #20
  resume { ptr, i32 } %.pn.pn.pn
}